
code.elf:     file format elf32-avr


Disassembly of section .text:

00000000 <__vectors>:
   0:	0c 94 34 00 	jmp	0x68	; 0x68 <__ctors_end>
   4:	0c 94 3e 00 	jmp	0x7c	; 0x7c <__bad_interrupt>
   8:	0c 94 3e 00 	jmp	0x7c	; 0x7c <__bad_interrupt>
   c:	0c 94 3e 00 	jmp	0x7c	; 0x7c <__bad_interrupt>
  10:	0c 94 3e 00 	jmp	0x7c	; 0x7c <__bad_interrupt>
  14:	0c 94 3e 00 	jmp	0x7c	; 0x7c <__bad_interrupt>
  18:	0c 94 3e 00 	jmp	0x7c	; 0x7c <__bad_interrupt>
  1c:	0c 94 3e 00 	jmp	0x7c	; 0x7c <__bad_interrupt>
  20:	0c 94 3e 00 	jmp	0x7c	; 0x7c <__bad_interrupt>
  24:	0c 94 3e 00 	jmp	0x7c	; 0x7c <__bad_interrupt>
  28:	0c 94 3e 00 	jmp	0x7c	; 0x7c <__bad_interrupt>
  2c:	0c 94 3e 00 	jmp	0x7c	; 0x7c <__bad_interrupt>
  30:	0c 94 3e 00 	jmp	0x7c	; 0x7c <__bad_interrupt>
  34:	0c 94 3e 00 	jmp	0x7c	; 0x7c <__bad_interrupt>
  38:	0c 94 3e 00 	jmp	0x7c	; 0x7c <__bad_interrupt>
  3c:	0c 94 3e 00 	jmp	0x7c	; 0x7c <__bad_interrupt>
  40:	0c 94 3e 00 	jmp	0x7c	; 0x7c <__bad_interrupt>
  44:	0c 94 3e 00 	jmp	0x7c	; 0x7c <__bad_interrupt>
  48:	0c 94 3e 00 	jmp	0x7c	; 0x7c <__bad_interrupt>
  4c:	0c 94 3e 00 	jmp	0x7c	; 0x7c <__bad_interrupt>
  50:	0c 94 3e 00 	jmp	0x7c	; 0x7c <__bad_interrupt>
  54:	0c 94 3e 00 	jmp	0x7c	; 0x7c <__bad_interrupt>
  58:	0c 94 3e 00 	jmp	0x7c	; 0x7c <__bad_interrupt>
  5c:	0c 94 3e 00 	jmp	0x7c	; 0x7c <__bad_interrupt>
  60:	0c 94 3e 00 	jmp	0x7c	; 0x7c <__bad_interrupt>
  64:	0c 94 3e 00 	jmp	0x7c	; 0x7c <__bad_interrupt>

00000068 <__ctors_end>:
  68:	11 24       	eor	r1, r1
  6a:	1f be       	out	0x3f, r1	; 63
  6c:	cf ef       	ldi	r28, 0xFF	; 255
  6e:	d8 e0       	ldi	r29, 0x08	; 8
  70:	de bf       	out	0x3e, r29	; 62
  72:	cd bf       	out	0x3d, r28	; 61
  74:	0e 94 40 00 	call	0x80	; 0x80 <main>
  78:	0c 94 37 02 	jmp	0x46e	; 0x46e <_exit>

0000007c <__bad_interrupt>:
  7c:	0c 94 00 00 	jmp	0	; 0x0 <__vectors>

00000080 <main>:
  80:	21 9a       	sbi	0x04, 1	; 4

00000082 <.Loc.3>:
  82:	22 9a       	sbi	0x04, 2	; 4

00000084 <.Loc.5>:
  84:	23 9a       	sbi	0x04, 3	; 4

00000086 <.Loc.7>:
  86:	24 9a       	sbi	0x04, 4	; 4

00000088 <.Loc.10>:
  88:	25 9a       	sbi	0x04, 5	; 4

0000008a <.LVL0>:
  8a:	80 e0       	ldi	r24, 0x00	; 0
  8c:	90 e0       	ldi	r25, 0x00	; 0

0000008e <.L2>:
  8e:	18 9b       	sbis	0x03, 0	; 3
  90:	fe cf       	rjmp	.-4      	; 0x8e <.L2>

00000092 <.LVL2>:
  92:	82 30       	cpi	r24, 0x02	; 2
  94:	91 05       	cpc	r25, r1
  96:	09 f4       	brne	.+2      	; 0x9a <.Loc.19>

00000098 <L0^A>:
  98:	e5 c0       	rjmp	.+458    	; 0x264 <.L6>

0000009a <.Loc.19>:
  9a:	0c f4       	brge	.+2      	; 0x9e <L0^A+0x2>

0000009c <L0^A>:
  9c:	60 c0       	rjmp	.+192    	; 0x15e <.L5>
  9e:	83 30       	cpi	r24, 0x03	; 3
  a0:	91 05       	cpc	r25, r1
  a2:	09 f4       	brne	.+2      	; 0xa6 <L0^A+0x2>

000000a4 <L0^A>:
  a4:	2f c1       	rjmp	.+606    	; 0x304 <.L16>
  a6:	84 30       	cpi	r24, 0x04	; 4
  a8:	91 05       	cpc	r25, r1
  aa:	09 f4       	brne	.+2      	; 0xae <.LBB64>

000000ac <L0^A>:
  ac:	6a c1       	rjmp	.+724    	; 0x382 <.L19>

000000ae <.LBB64>:
  ae:	3f ef       	ldi	r19, 0xFF	; 255
  b0:	43 e2       	ldi	r20, 0x23	; 35
  b2:	24 ef       	ldi	r18, 0xF4	; 244

000000b4 <.L1^B1>:
  b4:	31 50       	subi	r19, 0x01	; 1
  b6:	40 40       	sbci	r20, 0x00	; 0
  b8:	20 40       	sbci	r18, 0x00	; 0
  ba:	e1 f7       	brne	.-8      	; 0xb4 <.L1^B1>
  bc:	00 c0       	rjmp	.+0      	; 0xbe <L0^A>

000000be <L0^A>:
	...

000000c0 <.Loc.29>:
  c0:	84 30       	cpi	r24, 0x04	; 4
  c2:	91 05       	cpc	r25, r1
  c4:	0c f0       	brlt	.+2      	; 0xc8 <L0^A+0x2>

000000c6 <L0^A>:
  c6:	4f c0       	rjmp	.+158    	; 0x166 <.L35>
  c8:	81 30       	cpi	r24, 0x01	; 1
  ca:	91 05       	cpc	r25, r1
  cc:	09 f4       	brne	.+2      	; 0xd0 <L0^A+0x2>

000000ce <L0^A>:
  ce:	ad c0       	rjmp	.+346    	; 0x22a <.L21>
  d0:	02 97       	sbiw	r24, 0x02	; 2
  d2:	09 f4       	brne	.+2      	; 0xd6 <.L33>

000000d4 <L0^A>:
  d4:	5a c0       	rjmp	.+180    	; 0x18a <.L22>

000000d6 <.L33>:
  d6:	80 e0       	ldi	r24, 0x00	; 0
  d8:	90 e0       	ldi	r25, 0x00	; 0

000000da <.Loc.35>:
  da:	18 9b       	sbis	0x03, 0	; 3
  dc:	d8 cf       	rjmp	.-80     	; 0x8e <.L2>

000000de <.L17>:
  de:	2f ef       	ldi	r18, 0xFF	; 255
  e0:	39 e6       	ldi	r19, 0x69	; 105
  e2:	48 e1       	ldi	r20, 0x18	; 24

000000e4 <.L1^B2>:
  e4:	21 50       	subi	r18, 0x01	; 1
  e6:	30 40       	sbci	r19, 0x00	; 0
  e8:	40 40       	sbci	r20, 0x00	; 0
  ea:	e1 f7       	brne	.-8      	; 0xe4 <.L1^B2>
  ec:	00 c0       	rjmp	.+0      	; 0xee <L0^A>

000000ee <L0^A>:
	...

000000f0 <.LBE77>:
  f0:	29 9a       	sbi	0x05, 1	; 5

000000f2 <.LBB79>:
  f2:	8f ef       	ldi	r24, 0xFF	; 255
  f4:	99 e6       	ldi	r25, 0x69	; 105
  f6:	28 e1       	ldi	r18, 0x18	; 24

000000f8 <.L1^B3>:
  f8:	81 50       	subi	r24, 0x01	; 1
  fa:	90 40       	sbci	r25, 0x00	; 0
  fc:	20 40       	sbci	r18, 0x00	; 0
  fe:	e1 f7       	brne	.-8      	; 0xf8 <.L1^B3>
 100:	00 c0       	rjmp	.+0      	; 0x102 <L0^A>

00000102 <L0^A>:
	...

00000104 <.LBE79>:
 104:	29 98       	cbi	0x05, 1	; 5

00000106 <.LBB81>:
 106:	3f ef       	ldi	r19, 0xFF	; 255
 108:	49 e6       	ldi	r20, 0x69	; 105
 10a:	88 e1       	ldi	r24, 0x18	; 24

0000010c <.L1^B4>:
 10c:	31 50       	subi	r19, 0x01	; 1
 10e:	40 40       	sbci	r20, 0x00	; 0
 110:	80 40       	sbci	r24, 0x00	; 0
 112:	e1 f7       	brne	.-8      	; 0x10c <.L1^B4>
 114:	00 c0       	rjmp	.+0      	; 0x116 <L0^A>

00000116 <L0^A>:
	...

00000118 <.LBE81>:
 118:	29 9a       	sbi	0x05, 1	; 5

0000011a <.LBB83>:
 11a:	9f ef       	ldi	r25, 0xFF	; 255
 11c:	29 e6       	ldi	r18, 0x69	; 105
 11e:	38 e1       	ldi	r19, 0x18	; 24

00000120 <.L1^B5>:
 120:	91 50       	subi	r25, 0x01	; 1
 122:	20 40       	sbci	r18, 0x00	; 0
 124:	30 40       	sbci	r19, 0x00	; 0
 126:	e1 f7       	brne	.-8      	; 0x120 <.L1^B5>
 128:	00 c0       	rjmp	.+0      	; 0x12a <L0^A>

0000012a <L0^A>:
	...

0000012c <.LBE83>:
 12c:	29 98       	cbi	0x05, 1	; 5

0000012e <.LBB85>:
 12e:	4f ef       	ldi	r20, 0xFF	; 255
 130:	89 e6       	ldi	r24, 0x69	; 105
 132:	98 e1       	ldi	r25, 0x18	; 24

00000134 <.L1^B6>:
 134:	41 50       	subi	r20, 0x01	; 1
 136:	80 40       	sbci	r24, 0x00	; 0
 138:	90 40       	sbci	r25, 0x00	; 0
 13a:	e1 f7       	brne	.-8      	; 0x134 <.L1^B6>
 13c:	00 c0       	rjmp	.+0      	; 0x13e <L0^A>

0000013e <L0^A>:
	...

00000140 <.LBE85>:
 140:	29 9a       	sbi	0x05, 1	; 5

00000142 <.LBB87>:
 142:	2f ef       	ldi	r18, 0xFF	; 255
 144:	39 e6       	ldi	r19, 0x69	; 105
 146:	48 e1       	ldi	r20, 0x18	; 24

00000148 <.L1^B7>:
 148:	21 50       	subi	r18, 0x01	; 1
 14a:	30 40       	sbci	r19, 0x00	; 0
 14c:	40 40       	sbci	r20, 0x00	; 0
 14e:	e1 f7       	brne	.-8      	; 0x148 <.L1^B7>
 150:	00 c0       	rjmp	.+0      	; 0x152 <L0^A>

00000152 <L0^A>:
	...

00000154 <.LBE87>:
 154:	29 98       	cbi	0x05, 1	; 5

00000156 <.Loc.102>:
 156:	18 99       	sbic	0x03, 0	; 3
 158:	62 c1       	rjmp	.+708    	; 0x41e <.L8>

0000015a <.Loc.104>:
 15a:	29 9a       	sbi	0x05, 1	; 5

0000015c <.Loc.106>:
 15c:	1d c0       	rjmp	.+58     	; 0x198 <.L18>

0000015e <.L5>:
 15e:	89 2b       	or	r24, r25
 160:	09 f4       	brne	.+2      	; 0x164 <L0^A+0x2>

00000162 <L0^A>:
 162:	bd cf       	rjmp	.-134    	; 0xde <.L17>
 164:	19 c0       	rjmp	.+50     	; 0x198 <.L18>

00000166 <.L35>:
 166:	84 30       	cpi	r24, 0x04	; 4
 168:	91 05       	cpc	r25, r1
 16a:	09 f4       	brne	.+2      	; 0x16e <.Lname61>

0000016c <L0^A>:
 16c:	c4 c0       	rjmp	.+392    	; 0x2f6 <.L24>
 16e:	85 30       	cpi	r24, 0x05	; 5
 170:	91 05       	cpc	r25, r1
 172:	09 f4       	brne	.+2      	; 0x176 <L0^A+0x2>

00000174 <L0^A>:
 174:	4e c1       	rjmp	.+668    	; 0x412 <.L58>
 176:	8b cf       	rjmp	.-234    	; 0x8e <.L2>

00000178 <.L64>:
 178:	8f ef       	ldi	r24, 0xFF	; 255
 17a:	93 e2       	ldi	r25, 0x23	; 35
 17c:	24 ef       	ldi	r18, 0xF4	; 244

0000017e <.L1^B8>:
 17e:	81 50       	subi	r24, 0x01	; 1
 180:	90 40       	sbci	r25, 0x00	; 0
 182:	20 40       	sbci	r18, 0x00	; 0
 184:	e1 f7       	brne	.-8      	; 0x17e <.L1^B8>

00000186 <.L72>:
 186:	00 c0       	rjmp	.+0      	; 0x188 <L0^A>

00000188 <L0^A>:
	...

0000018a <.L22>:
 18a:	2a 98       	cbi	0x05, 2	; 5

0000018c <.Loc.126>:
 18c:	18 9b       	sbis	0x03, 0	; 3
 18e:	44 c0       	rjmp	.+136    	; 0x218 <.L65>

00000190 <.Loc.129>:
 190:	81 e0       	ldi	r24, 0x01	; 1
 192:	90 e0       	ldi	r25, 0x00	; 0

00000194 <.Loc.133>:
 194:	18 9b       	sbis	0x03, 0	; 3
 196:	7b cf       	rjmp	.-266    	; 0x8e <.L2>

00000198 <.L18>:
 198:	8f ef       	ldi	r24, 0xFF	; 255
 19a:	99 e6       	ldi	r25, 0x69	; 105
 19c:	28 e1       	ldi	r18, 0x18	; 24

0000019e <.L1^B9>:
 19e:	81 50       	subi	r24, 0x01	; 1
 1a0:	90 40       	sbci	r25, 0x00	; 0
 1a2:	20 40       	sbci	r18, 0x00	; 0
 1a4:	e1 f7       	brne	.-8      	; 0x19e <.L1^B9>
 1a6:	00 c0       	rjmp	.+0      	; 0x1a8 <L0^A>

000001a8 <L0^A>:
	...

000001aa <.LBE90>:
 1aa:	2a 9a       	sbi	0x05, 2	; 5

000001ac <.LBB92>:
 1ac:	3f ef       	ldi	r19, 0xFF	; 255
 1ae:	49 e6       	ldi	r20, 0x69	; 105
 1b0:	88 e1       	ldi	r24, 0x18	; 24

000001b2 <.L1^B10>:
 1b2:	31 50       	subi	r19, 0x01	; 1
 1b4:	40 40       	sbci	r20, 0x00	; 0
 1b6:	80 40       	sbci	r24, 0x00	; 0
 1b8:	e1 f7       	brne	.-8      	; 0x1b2 <.L1^B10>
 1ba:	00 c0       	rjmp	.+0      	; 0x1bc <L0^A>

000001bc <L0^A>:
	...

000001be <.LBE92>:
 1be:	2a 98       	cbi	0x05, 2	; 5

000001c0 <.LBB94>:
 1c0:	9f ef       	ldi	r25, 0xFF	; 255
 1c2:	29 e6       	ldi	r18, 0x69	; 105
 1c4:	38 e1       	ldi	r19, 0x18	; 24

000001c6 <.L1^B11>:
 1c6:	91 50       	subi	r25, 0x01	; 1
 1c8:	20 40       	sbci	r18, 0x00	; 0
 1ca:	30 40       	sbci	r19, 0x00	; 0
 1cc:	e1 f7       	brne	.-8      	; 0x1c6 <.L1^B11>
 1ce:	00 c0       	rjmp	.+0      	; 0x1d0 <L0^A>

000001d0 <L0^A>:
	...

000001d2 <.LBE94>:
 1d2:	2a 9a       	sbi	0x05, 2	; 5

000001d4 <.LBB96>:
 1d4:	4f ef       	ldi	r20, 0xFF	; 255
 1d6:	89 e6       	ldi	r24, 0x69	; 105
 1d8:	98 e1       	ldi	r25, 0x18	; 24

000001da <.L1^B12>:
 1da:	41 50       	subi	r20, 0x01	; 1
 1dc:	80 40       	sbci	r24, 0x00	; 0
 1de:	90 40       	sbci	r25, 0x00	; 0
 1e0:	e1 f7       	brne	.-8      	; 0x1da <.L1^B12>
 1e2:	00 c0       	rjmp	.+0      	; 0x1e4 <L0^A>

000001e4 <L0^A>:
	...

000001e6 <.LBE96>:
 1e6:	2a 98       	cbi	0x05, 2	; 5

000001e8 <.LBB98>:
 1e8:	2f ef       	ldi	r18, 0xFF	; 255
 1ea:	39 e6       	ldi	r19, 0x69	; 105
 1ec:	48 e1       	ldi	r20, 0x18	; 24

000001ee <.L1^B13>:
 1ee:	21 50       	subi	r18, 0x01	; 1
 1f0:	30 40       	sbci	r19, 0x00	; 0
 1f2:	40 40       	sbci	r20, 0x00	; 0
 1f4:	e1 f7       	brne	.-8      	; 0x1ee <.L1^B13>
 1f6:	00 c0       	rjmp	.+0      	; 0x1f8 <L0^A>

000001f8 <L0^A>:
	...

000001fa <.LBE98>:
 1fa:	2a 9a       	sbi	0x05, 2	; 5

000001fc <.LBB100>:
 1fc:	8f ef       	ldi	r24, 0xFF	; 255
 1fe:	99 e6       	ldi	r25, 0x69	; 105
 200:	28 e1       	ldi	r18, 0x18	; 24

00000202 <.L1^B14>:
 202:	81 50       	subi	r24, 0x01	; 1
 204:	90 40       	sbci	r25, 0x00	; 0
 206:	20 40       	sbci	r18, 0x00	; 0
 208:	e1 f7       	brne	.-8      	; 0x202 <.L1^B14>
 20a:	00 c0       	rjmp	.+0      	; 0x20c <L0^A>

0000020c <L0^A>:
	...

0000020e <.LBE100>:
 20e:	2a 98       	cbi	0x05, 2	; 5

00000210 <.Loc.200>:
 210:	18 99       	sbic	0x03, 0	; 3
 212:	1d c1       	rjmp	.+570    	; 0x44e <.L9>

00000214 <.Loc.202>:
 214:	2a 9a       	sbi	0x05, 2	; 5

00000216 <.Loc.204>:
 216:	26 c0       	rjmp	.+76     	; 0x264 <.L6>

00000218 <.L65>:
 218:	3f ef       	ldi	r19, 0xFF	; 255
 21a:	43 e2       	ldi	r20, 0x23	; 35
 21c:	84 ef       	ldi	r24, 0xF4	; 244

0000021e <.L1^B15>:
 21e:	31 50       	subi	r19, 0x01	; 1
 220:	40 40       	sbci	r20, 0x00	; 0
 222:	80 40       	sbci	r24, 0x00	; 0
 224:	e1 f7       	brne	.-8      	; 0x21e <.L1^B15>

00000226 <.L73>:
 226:	00 c0       	rjmp	.+0      	; 0x228 <L0^A>

00000228 <L0^A>:
	...

0000022a <.L21>:
 22a:	29 98       	cbi	0x05, 1	; 5

0000022c <.Loc.221>:
 22c:	18 99       	sbic	0x03, 0	; 3
 22e:	53 cf       	rjmp	.-346    	; 0xd6 <.L33>

00000230 <.Loc.224>:
 230:	9f ef       	ldi	r25, 0xFF	; 255
 232:	23 e2       	ldi	r18, 0x23	; 35
 234:	34 ef       	ldi	r19, 0xF4	; 244

00000236 <.L1^B16>:
 236:	91 50       	subi	r25, 0x01	; 1
 238:	20 40       	sbci	r18, 0x00	; 0
 23a:	30 40       	sbci	r19, 0x00	; 0
 23c:	e1 f7       	brne	.-8      	; 0x236 <.L1^B16>

0000023e <.L68>:
 23e:	00 c0       	rjmp	.+0      	; 0x240 <L0^A>

00000240 <L0^A>:
	...

00000242 <.Loc.233>:
 242:	49 cf       	rjmp	.-366    	; 0xd6 <.L33>

00000244 <.L63>:
 244:	4f ef       	ldi	r20, 0xFF	; 255
 246:	83 e2       	ldi	r24, 0x23	; 35
 248:	94 ef       	ldi	r25, 0xF4	; 244

0000024a <.L1^B17>:
 24a:	41 50       	subi	r20, 0x01	; 1
 24c:	80 40       	sbci	r24, 0x00	; 0
 24e:	90 40       	sbci	r25, 0x00	; 0
 250:	e1 f7       	brne	.-8      	; 0x24a <.L1^B17>

00000252 <.L71>:
 252:	00 c0       	rjmp	.+0      	; 0x254 <L0^A>

00000254 <L0^A>:
	...

00000256 <.Loc.244>:
 256:	2b 98       	cbi	0x05, 3	; 5

00000258 <.Loc.248>:
 258:	18 9b       	sbis	0x03, 0	; 3
 25a:	8e cf       	rjmp	.-228    	; 0x178 <.L64>

0000025c <.Loc.251>:
 25c:	82 e0       	ldi	r24, 0x02	; 2
 25e:	90 e0       	ldi	r25, 0x00	; 0

00000260 <.Loc.255>:
 260:	18 9b       	sbis	0x03, 0	; 3
 262:	15 cf       	rjmp	.-470    	; 0x8e <.L2>

00000264 <.L6>:
 264:	3f ef       	ldi	r19, 0xFF	; 255
 266:	49 e6       	ldi	r20, 0x69	; 105
 268:	88 e1       	ldi	r24, 0x18	; 24

0000026a <.L1^B18>:
 26a:	31 50       	subi	r19, 0x01	; 1
 26c:	40 40       	sbci	r20, 0x00	; 0
 26e:	80 40       	sbci	r24, 0x00	; 0
 270:	e1 f7       	brne	.-8      	; 0x26a <.L1^B18>
 272:	00 c0       	rjmp	.+0      	; 0x274 <L0^A>

00000274 <L0^A>:
	...

00000276 <.LBE105>:
 276:	2b 9a       	sbi	0x05, 3	; 5

00000278 <.LBB107>:
 278:	9f ef       	ldi	r25, 0xFF	; 255
 27a:	29 e6       	ldi	r18, 0x69	; 105
 27c:	38 e1       	ldi	r19, 0x18	; 24

0000027e <.L1^B19>:
 27e:	91 50       	subi	r25, 0x01	; 1
 280:	20 40       	sbci	r18, 0x00	; 0
 282:	30 40       	sbci	r19, 0x00	; 0
 284:	e1 f7       	brne	.-8      	; 0x27e <.L1^B19>
 286:	00 c0       	rjmp	.+0      	; 0x288 <L0^A>

00000288 <L0^A>:
	...

0000028a <.LBE107>:
 28a:	2b 98       	cbi	0x05, 3	; 5

0000028c <.LBB109>:
 28c:	4f ef       	ldi	r20, 0xFF	; 255
 28e:	89 e6       	ldi	r24, 0x69	; 105
 290:	98 e1       	ldi	r25, 0x18	; 24

00000292 <.L1^B20>:
 292:	41 50       	subi	r20, 0x01	; 1
 294:	80 40       	sbci	r24, 0x00	; 0
 296:	90 40       	sbci	r25, 0x00	; 0
 298:	e1 f7       	brne	.-8      	; 0x292 <.L1^B20>
 29a:	00 c0       	rjmp	.+0      	; 0x29c <L0^A>

0000029c <L0^A>:
	...

0000029e <.LBE109>:
 29e:	2b 9a       	sbi	0x05, 3	; 5

000002a0 <.LBB111>:
 2a0:	2f ef       	ldi	r18, 0xFF	; 255
 2a2:	39 e6       	ldi	r19, 0x69	; 105
 2a4:	48 e1       	ldi	r20, 0x18	; 24

000002a6 <.L1^B21>:
 2a6:	21 50       	subi	r18, 0x01	; 1
 2a8:	30 40       	sbci	r19, 0x00	; 0
 2aa:	40 40       	sbci	r20, 0x00	; 0
 2ac:	e1 f7       	brne	.-8      	; 0x2a6 <.L1^B21>
 2ae:	00 c0       	rjmp	.+0      	; 0x2b0 <L0^A>

000002b0 <L0^A>:
	...

000002b2 <.LBE111>:
 2b2:	2b 98       	cbi	0x05, 3	; 5

000002b4 <.LBB113>:
 2b4:	8f ef       	ldi	r24, 0xFF	; 255
 2b6:	99 e6       	ldi	r25, 0x69	; 105
 2b8:	28 e1       	ldi	r18, 0x18	; 24

000002ba <.L1^B22>:
 2ba:	81 50       	subi	r24, 0x01	; 1
 2bc:	90 40       	sbci	r25, 0x00	; 0
 2be:	20 40       	sbci	r18, 0x00	; 0
 2c0:	e1 f7       	brne	.-8      	; 0x2ba <.L1^B22>
 2c2:	00 c0       	rjmp	.+0      	; 0x2c4 <L0^A>

000002c4 <L0^A>:
	...

000002c6 <.LBE113>:
 2c6:	2b 9a       	sbi	0x05, 3	; 5

000002c8 <.LBB115>:
 2c8:	3f ef       	ldi	r19, 0xFF	; 255
 2ca:	49 e6       	ldi	r20, 0x69	; 105
 2cc:	88 e1       	ldi	r24, 0x18	; 24

000002ce <.L1^B23>:
 2ce:	31 50       	subi	r19, 0x01	; 1
 2d0:	40 40       	sbci	r20, 0x00	; 0
 2d2:	80 40       	sbci	r24, 0x00	; 0
 2d4:	e1 f7       	brne	.-8      	; 0x2ce <.L1^B23>
 2d6:	00 c0       	rjmp	.+0      	; 0x2d8 <L0^A>

000002d8 <L0^A>:
	...

000002da <.LBE115>:
 2da:	2b 98       	cbi	0x05, 3	; 5

000002dc <.Loc.322>:
 2dc:	18 99       	sbic	0x03, 0	; 3
 2de:	af c0       	rjmp	.+350    	; 0x43e <.L10>

000002e0 <.Loc.324>:
 2e0:	2b 9a       	sbi	0x05, 3	; 5

000002e2 <.Loc.326>:
 2e2:	10 c0       	rjmp	.+32     	; 0x304 <.L16>

000002e4 <.L62>:
 2e4:	2f ef       	ldi	r18, 0xFF	; 255
 2e6:	33 e2       	ldi	r19, 0x23	; 35
 2e8:	44 ef       	ldi	r20, 0xF4	; 244

000002ea <.L1^B24>:
 2ea:	21 50       	subi	r18, 0x01	; 1
 2ec:	30 40       	sbci	r19, 0x00	; 0
 2ee:	40 40       	sbci	r20, 0x00	; 0
 2f0:	e1 f7       	brne	.-8      	; 0x2ea <.L1^B24>

000002f2 <.L70>:
 2f2:	00 c0       	rjmp	.+0      	; 0x2f4 <L0^A>

000002f4 <L0^A>:
	...

000002f6 <.L24>:
 2f6:	2c 98       	cbi	0x05, 4	; 5

000002f8 <.Loc.343>:
 2f8:	18 9b       	sbis	0x03, 0	; 3
 2fa:	a4 cf       	rjmp	.-184    	; 0x244 <.L63>

000002fc <.Loc.346>:
 2fc:	83 e0       	ldi	r24, 0x03	; 3
 2fe:	90 e0       	ldi	r25, 0x00	; 0

00000300 <.Loc.350>:
 300:	18 9b       	sbis	0x03, 0	; 3
 302:	c5 ce       	rjmp	.-630    	; 0x8e <.L2>

00000304 <.L16>:
 304:	9f ef       	ldi	r25, 0xFF	; 255
 306:	29 e6       	ldi	r18, 0x69	; 105
 308:	38 e1       	ldi	r19, 0x18	; 24

0000030a <.L1^B25>:
 30a:	91 50       	subi	r25, 0x01	; 1
 30c:	20 40       	sbci	r18, 0x00	; 0
 30e:	30 40       	sbci	r19, 0x00	; 0
 310:	e1 f7       	brne	.-8      	; 0x30a <.L1^B25>
 312:	00 c0       	rjmp	.+0      	; 0x314 <L0^A>

00000314 <L0^A>:
	...

00000316 <.LBE118>:
 316:	2c 9a       	sbi	0x05, 4	; 5

00000318 <.LBB120>:
 318:	4f ef       	ldi	r20, 0xFF	; 255
 31a:	89 e6       	ldi	r24, 0x69	; 105
 31c:	98 e1       	ldi	r25, 0x18	; 24

0000031e <.L1^B26>:
 31e:	41 50       	subi	r20, 0x01	; 1
 320:	80 40       	sbci	r24, 0x00	; 0
 322:	90 40       	sbci	r25, 0x00	; 0
 324:	e1 f7       	brne	.-8      	; 0x31e <.L1^B26>
 326:	00 c0       	rjmp	.+0      	; 0x328 <L0^A>

00000328 <L0^A>:
	...

0000032a <.LBE120>:
 32a:	2c 98       	cbi	0x05, 4	; 5

0000032c <.LBB122>:
 32c:	2f ef       	ldi	r18, 0xFF	; 255
 32e:	39 e6       	ldi	r19, 0x69	; 105
 330:	48 e1       	ldi	r20, 0x18	; 24

00000332 <.L1^B27>:
 332:	21 50       	subi	r18, 0x01	; 1
 334:	30 40       	sbci	r19, 0x00	; 0
 336:	40 40       	sbci	r20, 0x00	; 0
 338:	e1 f7       	brne	.-8      	; 0x332 <.L1^B27>
 33a:	00 c0       	rjmp	.+0      	; 0x33c <L0^A>

0000033c <L0^A>:
	...

0000033e <.LBE122>:
 33e:	2c 9a       	sbi	0x05, 4	; 5

00000340 <.LBB124>:
 340:	8f ef       	ldi	r24, 0xFF	; 255
 342:	99 e6       	ldi	r25, 0x69	; 105
 344:	28 e1       	ldi	r18, 0x18	; 24

00000346 <.L1^B28>:
 346:	81 50       	subi	r24, 0x01	; 1
 348:	90 40       	sbci	r25, 0x00	; 0
 34a:	20 40       	sbci	r18, 0x00	; 0
 34c:	e1 f7       	brne	.-8      	; 0x346 <.L1^B28>
 34e:	00 c0       	rjmp	.+0      	; 0x350 <L0^A>

00000350 <L0^A>:
	...

00000352 <.LBE124>:
 352:	2c 98       	cbi	0x05, 4	; 5

00000354 <.LBB126>:
 354:	3f ef       	ldi	r19, 0xFF	; 255
 356:	49 e6       	ldi	r20, 0x69	; 105
 358:	88 e1       	ldi	r24, 0x18	; 24

0000035a <.L1^B29>:
 35a:	31 50       	subi	r19, 0x01	; 1
 35c:	40 40       	sbci	r20, 0x00	; 0
 35e:	80 40       	sbci	r24, 0x00	; 0
 360:	e1 f7       	brne	.-8      	; 0x35a <.L1^B29>
 362:	00 c0       	rjmp	.+0      	; 0x364 <L0^A>

00000364 <L0^A>:
	...

00000366 <.LBE126>:
 366:	2c 9a       	sbi	0x05, 4	; 5

00000368 <.LBB128>:
 368:	9f ef       	ldi	r25, 0xFF	; 255
 36a:	29 e6       	ldi	r18, 0x69	; 105
 36c:	38 e1       	ldi	r19, 0x18	; 24

0000036e <.L1^B30>:
 36e:	91 50       	subi	r25, 0x01	; 1
 370:	20 40       	sbci	r18, 0x00	; 0
 372:	30 40       	sbci	r19, 0x00	; 0
 374:	e1 f7       	brne	.-8      	; 0x36e <.L1^B30>
 376:	00 c0       	rjmp	.+0      	; 0x378 <L0^A>

00000378 <L0^A>:
	...

0000037a <.LBE128>:
 37a:	2c 98       	cbi	0x05, 4	; 5

0000037c <.Loc.417>:
 37c:	18 99       	sbic	0x03, 0	; 3
 37e:	6f c0       	rjmp	.+222    	; 0x45e <.L12>

00000380 <.Loc.419>:
 380:	2c 9a       	sbi	0x05, 4	; 5

00000382 <.L19>:
 382:	4f ef       	ldi	r20, 0xFF	; 255
 384:	89 e6       	ldi	r24, 0x69	; 105
 386:	98 e1       	ldi	r25, 0x18	; 24

00000388 <.L1^B31>:
 388:	41 50       	subi	r20, 0x01	; 1
 38a:	80 40       	sbci	r24, 0x00	; 0
 38c:	90 40       	sbci	r25, 0x00	; 0
 38e:	e1 f7       	brne	.-8      	; 0x388 <.L1^B31>
 390:	00 c0       	rjmp	.+0      	; 0x392 <L0^A>

00000392 <L0^A>:
	...

00000394 <.LBE130>:
 394:	2d 9a       	sbi	0x05, 5	; 5

00000396 <.LBB132>:
 396:	2f ef       	ldi	r18, 0xFF	; 255
 398:	39 e6       	ldi	r19, 0x69	; 105
 39a:	48 e1       	ldi	r20, 0x18	; 24

0000039c <.L1^B32>:
 39c:	21 50       	subi	r18, 0x01	; 1
 39e:	30 40       	sbci	r19, 0x00	; 0
 3a0:	40 40       	sbci	r20, 0x00	; 0
 3a2:	e1 f7       	brne	.-8      	; 0x39c <.L1^B32>
 3a4:	00 c0       	rjmp	.+0      	; 0x3a6 <L0^A>

000003a6 <L0^A>:
	...

000003a8 <.LBE132>:
 3a8:	2d 98       	cbi	0x05, 5	; 5

000003aa <.LBB134>:
 3aa:	8f ef       	ldi	r24, 0xFF	; 255
 3ac:	99 e6       	ldi	r25, 0x69	; 105
 3ae:	28 e1       	ldi	r18, 0x18	; 24

000003b0 <.L1^B33>:
 3b0:	81 50       	subi	r24, 0x01	; 1
 3b2:	90 40       	sbci	r25, 0x00	; 0
 3b4:	20 40       	sbci	r18, 0x00	; 0
 3b6:	e1 f7       	brne	.-8      	; 0x3b0 <.L1^B33>
 3b8:	00 c0       	rjmp	.+0      	; 0x3ba <L0^A>

000003ba <L0^A>:
	...

000003bc <.LBE134>:
 3bc:	2d 9a       	sbi	0x05, 5	; 5

000003be <.LBB136>:
 3be:	3f ef       	ldi	r19, 0xFF	; 255
 3c0:	49 e6       	ldi	r20, 0x69	; 105
 3c2:	88 e1       	ldi	r24, 0x18	; 24

000003c4 <.L1^B34>:
 3c4:	31 50       	subi	r19, 0x01	; 1
 3c6:	40 40       	sbci	r20, 0x00	; 0
 3c8:	80 40       	sbci	r24, 0x00	; 0
 3ca:	e1 f7       	brne	.-8      	; 0x3c4 <.L1^B34>
 3cc:	00 c0       	rjmp	.+0      	; 0x3ce <L0^A>

000003ce <L0^A>:
	...

000003d0 <.LBE136>:
 3d0:	2d 98       	cbi	0x05, 5	; 5

000003d2 <.LBB138>:
 3d2:	9f ef       	ldi	r25, 0xFF	; 255
 3d4:	29 e6       	ldi	r18, 0x69	; 105
 3d6:	38 e1       	ldi	r19, 0x18	; 24

000003d8 <.L1^B35>:
 3d8:	91 50       	subi	r25, 0x01	; 1
 3da:	20 40       	sbci	r18, 0x00	; 0
 3dc:	30 40       	sbci	r19, 0x00	; 0
 3de:	e1 f7       	brne	.-8      	; 0x3d8 <.L1^B35>
 3e0:	00 c0       	rjmp	.+0      	; 0x3e2 <L0^A>

000003e2 <L0^A>:
	...

000003e4 <.LBE138>:
 3e4:	2d 9a       	sbi	0x05, 5	; 5

000003e6 <.LBB140>:
 3e6:	4f ef       	ldi	r20, 0xFF	; 255
 3e8:	89 e6       	ldi	r24, 0x69	; 105
 3ea:	98 e1       	ldi	r25, 0x18	; 24

000003ec <.L1^B36>:
 3ec:	41 50       	subi	r20, 0x01	; 1
 3ee:	80 40       	sbci	r24, 0x00	; 0
 3f0:	90 40       	sbci	r25, 0x00	; 0
 3f2:	e1 f7       	brne	.-8      	; 0x3ec <.L1^B36>
 3f4:	00 c0       	rjmp	.+0      	; 0x3f6 <L0^A>

000003f6 <L0^A>:
	...

000003f8 <.LBE140>:
 3f8:	2d 98       	cbi	0x05, 5	; 5

000003fa <.Loc.491>:
 3fa:	18 99       	sbic	0x03, 0	; 3
 3fc:	18 c0       	rjmp	.+48     	; 0x42e <.L14>

000003fe <.Loc.493>:
 3fe:	2d 9a       	sbi	0x05, 5	; 5

00000400 <.Loc.495>:
 400:	2f ef       	ldi	r18, 0xFF	; 255
 402:	33 e2       	ldi	r19, 0x23	; 35
 404:	44 ef       	ldi	r20, 0xF4	; 244

00000406 <.L1^B37>:
 406:	21 50       	subi	r18, 0x01	; 1
 408:	30 40       	sbci	r19, 0x00	; 0
 40a:	40 40       	sbci	r20, 0x00	; 0
 40c:	e1 f7       	brne	.-8      	; 0x406 <.L1^B37>
 40e:	00 c0       	rjmp	.+0      	; 0x410 <L0^A>

00000410 <L0^A>:
	...

00000412 <.L58>:
 412:	2d 98       	cbi	0x05, 5	; 5

00000414 <.Loc.512>:
 414:	18 9b       	sbis	0x03, 0	; 3
 416:	66 cf       	rjmp	.-308    	; 0x2e4 <.L62>

00000418 <.Loc.515>:
 418:	84 e0       	ldi	r24, 0x04	; 4
 41a:	90 e0       	ldi	r25, 0x00	; 0
 41c:	38 ce       	rjmp	.-912    	; 0x8e <.L2>

0000041e <.L8>:
 41e:	8f ef       	ldi	r24, 0xFF	; 255
 420:	93 e2       	ldi	r25, 0x23	; 35
 422:	24 ef       	ldi	r18, 0xF4	; 244

00000424 <.L1^B38>:
 424:	81 50       	subi	r24, 0x01	; 1
 426:	90 40       	sbci	r25, 0x00	; 0
 428:	20 40       	sbci	r18, 0x00	; 0
 42a:	e1 f7       	brne	.-8      	; 0x424 <.L1^B38>
 42c:	08 cf       	rjmp	.-496    	; 0x23e <.L68>

0000042e <.L14>:
 42e:	3f ef       	ldi	r19, 0xFF	; 255
 430:	43 e2       	ldi	r20, 0x23	; 35
 432:	84 ef       	ldi	r24, 0xF4	; 244

00000434 <.L1^B39>:
 434:	31 50       	subi	r19, 0x01	; 1
 436:	40 40       	sbci	r20, 0x00	; 0
 438:	80 40       	sbci	r24, 0x00	; 0
 43a:	e1 f7       	brne	.-8      	; 0x434 <.L1^B39>
 43c:	5a cf       	rjmp	.-332    	; 0x2f2 <.L70>

0000043e <.L10>:
 43e:	9f ef       	ldi	r25, 0xFF	; 255
 440:	23 e2       	ldi	r18, 0x23	; 35
 442:	34 ef       	ldi	r19, 0xF4	; 244

00000444 <.L1^B40>:
 444:	91 50       	subi	r25, 0x01	; 1
 446:	20 40       	sbci	r18, 0x00	; 0
 448:	30 40       	sbci	r19, 0x00	; 0
 44a:	e1 f7       	brne	.-8      	; 0x444 <.L1^B40>
 44c:	9c ce       	rjmp	.-712    	; 0x186 <.L72>

0000044e <.L9>:
 44e:	4f ef       	ldi	r20, 0xFF	; 255
 450:	83 e2       	ldi	r24, 0x23	; 35
 452:	94 ef       	ldi	r25, 0xF4	; 244

00000454 <.L1^B41>:
 454:	41 50       	subi	r20, 0x01	; 1
 456:	80 40       	sbci	r24, 0x00	; 0
 458:	90 40       	sbci	r25, 0x00	; 0
 45a:	e1 f7       	brne	.-8      	; 0x454 <.L1^B41>
 45c:	e4 ce       	rjmp	.-568    	; 0x226 <.L73>

0000045e <.L12>:
 45e:	2f ef       	ldi	r18, 0xFF	; 255
 460:	33 e2       	ldi	r19, 0x23	; 35
 462:	44 ef       	ldi	r20, 0xF4	; 244

00000464 <.L1^B42>:
 464:	21 50       	subi	r18, 0x01	; 1
 466:	30 40       	sbci	r19, 0x00	; 0
 468:	40 40       	sbci	r20, 0x00	; 0
 46a:	e1 f7       	brne	.-8      	; 0x464 <.L1^B42>
 46c:	f2 ce       	rjmp	.-540    	; 0x252 <.L71>

0000046e <_exit>:
 46e:	f8 94       	cli

00000470 <__stop_program>:
 470:	ff cf       	rjmp	.-2      	; 0x470 <__stop_program>
